target datalayout = "e-m:e-p270:32:32-p271:32:32-p272:64:64-i64:64-i128:128-f80:128-n8:16:32:64-S128"
target triple = "x86_64-pc-linux-gnu"

%struct.ARKodeMemRec = type { ptr, double, ptr, i32, i32, double, double, ptr, i32, double, ptr, i32, i32, ptr, ptr, i32, ptr, ptr, i32, ptr, ptr, ptr, ptr, ptr, ptr, ptr, ptr, ptr, ptr, ptr, ptr, ptr, ptr, ptr, i32, ptr, ptr, i32, ptr, i32, ptr, ptr, ptr, ptr, ptr, ptr, ptr, ptr, ptr, ptr, ptr, ptr, ptr, ptr, ptr, ptr, ptr, ptr, ptr, ptr, ptr, ptr, ptr, ptr, ptr, ptr, i32, ptr, ptr, ptr, ptr, ptr, ptr, ptr, i32, ptr, ptr, ptr, i32, ptr, ptr, ptr, ptr, ptr, ptr, ptr, i32, i32, i32, i32, double, double, double, double, double, double, double, double, double, double, i32, ptr, i64, i32, i32, i32, i32, i64, i64, i32, i64, i64, i64, i64, i64, i64, i64, double, double, double, double, double, i32, double, double, i32, i32, i32, i32, i32, i32, i32, i32, ptr, i32, ptr, ptr, ptr, ptr, i32, i32, i32 }
%struct.SUNStepper_ = type { ptr, ptr, ptr, i32 }

; Function Attrs: nounwind uwtable
define internal i32 @arkSUNStepperSetForcing(ptr noundef %0, double noundef %1, double noundef %2, ptr noundef %3, i32 noundef %4) #0 {
  %6 = alloca i32, align 4
  %7 = alloca ptr, align 8
  %8 = alloca double, align 8
  %9 = alloca double, align 8
  %10 = alloca ptr, align 8
  %11 = alloca i32, align 4
  %12 = alloca ptr, align 8
  %13 = alloca ptr, align 8
  %14 = alloca ptr, align 8
  %15 = alloca i32, align 4
  store ptr %0, ptr %7, align 8, !tbaa !23
  store double %1, ptr %8, align 8, !tbaa !26
  store double %2, ptr %9, align 8, !tbaa !26
  store ptr %3, ptr %10, align 8, !tbaa !36
  store i32 %4, ptr %11, align 4, !tbaa !22
  call void @llvm.lifetime.start.p0(i64 8, ptr %12) #3
  %16 = load ptr, ptr %7, align 8, !tbaa !23
  %17 = getelementptr inbounds nuw %struct.SUNStepper_, ptr %16, i32 0, i32 2
  %18 = load ptr, ptr %17, align 8, !tbaa !30
  store ptr %18, ptr %12, align 8, !tbaa !33
  call void @llvm.lifetime.start.p0(i64 8, ptr %13) #3
  %19 = load ptr, ptr %7, align 8, !tbaa !23
  %20 = call i32 @SUNStepper_GetContent(ptr noundef %19, ptr noundef %13)
  call void @llvm.lifetime.start.p0(i64 8, ptr %14) #3
  %21 = load ptr, ptr %13, align 8, !tbaa !3
  store ptr %21, ptr %14, align 8, !tbaa !9
  %22 = load ptr, ptr %14, align 8, !tbaa !9
  %23 = getelementptr inbounds nuw %struct.ARKodeMemRec, ptr %22, i32 0, i32 71
  %24 = load ptr, ptr %23, align 8, !tbaa !25
  %25 = load ptr, ptr %14, align 8, !tbaa !9
  %26 = load double, ptr %8, align 8, !tbaa !26
  %27 = load double, ptr %9, align 8, !tbaa !26
  %28 = load ptr, ptr %10, align 8, !tbaa !36
  %29 = load i32, ptr %11, align 4, !tbaa !22
  %30 = call i32 %24(ptr noundef %25, double noundef %26, double noundef %27, ptr noundef %28, i32 noundef %29)
  %31 = load ptr, ptr %7, align 8, !tbaa !23
  %32 = getelementptr inbounds nuw %struct.SUNStepper_, ptr %31, i32 0, i32 3
  store i32 %30, ptr %32, align 8, !tbaa !35
  %33 = load ptr, ptr %7, align 8, !tbaa !23
  %34 = getelementptr inbounds nuw %struct.SUNStepper_, ptr %33, i32 0, i32 3
  %35 = load i32, ptr %34, align 8, !tbaa !35
  %36 = icmp ne i32 %35, 0
  br i1 %36, label %37, label %38

37:                                               ; preds = %5
  store i32 -9990, ptr %6, align 4
  store i32 1, ptr %15, align 4
  br label %39

38:                                               ; preds = %5
  store i32 0, ptr %6, align 4
  store i32 1, ptr %15, align 4
  br label %39

39:                                               ; preds = %38, %37
  call void @llvm.lifetime.end.p0(i64 8, ptr %14) #3
  call void @llvm.lifetime.end.p0(i64 8, ptr %13) #3
  call void @llvm.lifetime.end.p0(i64 8, ptr %12) #3
  %40 = load i32, ptr %6, align 4
  ret i32 %40
}