; Function Attrs: nounwind uwtable
define internal range(i32 -9990, 1) i32 @arkSUNStepperSetForcing(ptr noundef %0, double noundef %1, double noundef %2, ptr noundef %3, i32 noundef %4) #0 {
  %6 = alloca ptr, align 8
  call void @llvm.lifetime.start.p0(i64 8, ptr nonnull %6) #3
  %7 = call i32 @SUNStepper_GetContent(ptr noundef %0, ptr noundef nonnull %6) #3
  %8 = load ptr, ptr %6, align 8, !tbaa !20
  %9 = getelementptr inbounds nuw i8, ptr %8, i64 552
  %10 = load ptr, ptr %9, align 8, !tbaa !19
  %11 = call i32 %10(ptr noundef %8, double noundef %1, double noundef %2, ptr noundef %3, i32 noundef %4) #3
  %12 = getelementptr inbounds nuw i8, ptr %0, i64 24
  store i32 %11, ptr %12, align 8, !tbaa !21
  %.not = icmp eq i32 %11, 0
  %. = select i1 %.not, i32 0, i32 -9990
  call void @llvm.lifetime.end.p0(i64 8, ptr nonnull %6) #3
  ret i32 %.
}